target datalayout = "e-m:e-p270:32:32-p271:32:32-p272:64:64-i64:64-i128:128-f80:128-n8:16:32:64-S128"
target triple = "x86_64-pc-linux-gnu"

%struct.fd_data = type { ptr, ptr, i64, ptr, i64 }
%struct.fd_buf = type { ptr, i64, i64, i32, i8, i32, i32, i32, i32, i32, i32, i64, ptr, i64, ptr }

; Function Attrs: nounwind uwtable
define internal void @fds_unlock(ptr noundef %0) #0 {
  %2 = alloca ptr, align 8
  store ptr %0, ptr %2, align 8
  %3 = load ptr, ptr %2, align 8
  %4 = getelementptr inbounds %struct.fd_data, ptr %3, i32 0, i32 0
  %5 = load ptr, ptr %4, align 8
  %6 = icmp ne ptr %5, null
  br i1 %6, label %7, label %12

7:                                                ; preds = %1
  %8 = load ptr, ptr %2, align 8
  %9 = getelementptr inbounds %struct.fd_data, ptr %8, i32 0, i32 0
  %10 = load ptr, ptr %9, align 8
  %11 = call i32 @pthread_mutex_unlock(ptr noundef %10) #12
  br label %12

12:                                               ; preds = %7, %1
  ret void
}

; Function Attrs: nounwind uwtable
define internal void @fds_lock(ptr noundef %0) #0 {
  %2 = alloca ptr, align 8
  store ptr %0, ptr %2, align 8
  %3 = load ptr, ptr %2, align 8
  %4 = getelementptr inbounds %struct.fd_data, ptr %3, i32 0, i32 0
  %5 = load ptr, ptr %4, align 8
  %6 = icmp ne ptr %5, null
  br i1 %6, label %7, label %12

7:                                                ; preds = %1
  %8 = load ptr, ptr %2, align 8
  %9 = getelementptr inbounds %struct.fd_data, ptr %8, i32 0, i32 0
  %10 = load ptr, ptr %9, align 8
  %11 = call i32 @pthread_mutex_lock(ptr noundef %10) #12
  br label %12

12:                                               ; preds = %7, %1
  ret void
}

; Function Attrs: nounwind uwtable
define dso_local void @fds_remove(ptr noundef %0, i32 noundef %1) #0 {
  %3 = alloca ptr, align 8
  %4 = alloca i32, align 4
  %5 = alloca i64, align 8
  store ptr %0, ptr %3, align 8
  store i32 %1, ptr %4, align 4
  %6 = load ptr, ptr %3, align 8
  call void @fds_lock(ptr noundef %6)
  %7 = load ptr, ptr %3, align 8
  %8 = getelementptr inbounds %struct.fd_data, ptr %7, i32 0, i32 1
  %9 = load ptr, ptr %8, align 8
  %10 = icmp ne ptr %9, null
  br i1 %10, label %11, label %40

11:                                               ; preds = %2
  store i64 0, ptr %5, align 8
  br label %12

12:                                               ; preds = %36, %11
  %13 = load i64, ptr %5, align 8
  %14 = load ptr, ptr %3, align 8
  %15 = getelementptr inbounds %struct.fd_data, ptr %14, i32 0, i32 2
  %16 = load i64, ptr %15, align 8
  %17 = icmp ult i64 %13, %16
  br i1 %17, label %18, label %39

18:                                               ; preds = %12
  %19 = load ptr, ptr %3, align 8
  %20 = getelementptr inbounds %struct.fd_data, ptr %19, i32 0, i32 1
  %21 = load ptr, ptr %20, align 8
  %22 = load i64, ptr %5, align 8
  %23 = getelementptr inbounds %struct.fd_buf, ptr %21, i64 %22
  %24 = getelementptr inbounds %struct.fd_buf, ptr %23, i32 0, i32 3
  %25 = load i32, ptr %24, align 8
  %26 = load i32, ptr %4, align 4
  %27 = icmp eq i32 %25, %26
  br i1 %27, label %28, label %35

28:                                               ; preds = %18
  %29 = load ptr, ptr %3, align 8
  %30 = getelementptr inbounds %struct.fd_data, ptr %29, i32 0, i32 1
  %31 = load ptr, ptr %30, align 8
  %32 = load i64, ptr %5, align 8
  %33 = getelementptr inbounds %struct.fd_buf, ptr %31, i64 %32
  %34 = getelementptr inbounds %struct.fd_buf, ptr %33, i32 0, i32 3
  store i32 -1, ptr %34, align 8
  br label %39

35:                                               ; preds = %18
  br label %36

36:                                               ; preds = %35
  %37 = load i64, ptr %5, align 8
  %38 = add i64 %37, 1
  store i64 %38, ptr %5, align 8
  br label %12

39:                                               ; preds = %28, %12
  br label %40

40:                                               ; preds = %39, %2
  %41 = load ptr, ptr %3, align 8
  call void @fds_unlock(ptr noundef %41)
  ret void
}