; Function Attrs: nounwind uwtable
define dso_local void @fds_remove(ptr nocapture noundef readonly %0, i32 noundef %1) local_unnamed_addr #0 {
  %.val10 = load ptr, ptr %0, align 8
  %.not.i = icmp eq ptr %.val10, null
  br i1 %.not.i, label %fds_lock.exit, label %3

3:                                                ; preds = %2
  %4 = tail call i32 @pthread_mutex_lock(ptr noundef nonnull %.val10) #21
  br label %fds_lock.exit

fds_lock.exit:                                    ; preds = %2, %3
  %5 = getelementptr inbounds i8, ptr %0, i64 8
  %6 = load ptr, ptr %5, align 8
  %.not = icmp eq ptr %6, null
  br i1 %.not, label %.loopexit, label %.preheader

.preheader:                                       ; preds = %fds_lock.exit
  %7 = getelementptr inbounds i8, ptr %0, i64 16
  %8 = load i64, ptr %7, align 8
  %.not13 = icmp eq i64 %8, 0
  br i1 %.not13, label %.loopexit, label %.lr.ph

9:                                                ; preds = %.lr.ph
  %10 = add nuw i64 %.012, 1
  %exitcond.not = icmp eq i64 %10, %8
  br i1 %exitcond.not, label %.loopexit, label %.lr.ph

.lr.ph:                                           ; preds = %.preheader, %9
  %.012 = phi i64 [ %10, %9 ], [ 0, %.preheader ]
  %11 = getelementptr inbounds %struct.fd_buf, ptr %6, i64 %.012, i32 3
  %12 = load i32, ptr %11, align 8
  %13 = icmp eq i32 %12, %1
  br i1 %13, label %14, label %9

14:                                               ; preds = %.lr.ph
  store i32 -1, ptr %11, align 8
  br label %.loopexit

.loopexit:                                        ; preds = %9, %.preheader, %14, %fds_lock.exit
  %.val = load ptr, ptr %0, align 8
  %.not.i11 = icmp eq ptr %.val, null
  br i1 %.not.i11, label %fds_unlock.exit, label %15

15:                                               ; preds = %.loopexit
  %16 = tail call i32 @pthread_mutex_unlock(ptr noundef nonnull %.val) #21
  br label %fds_unlock.exit

fds_unlock.exit:                                  ; preds = %.loopexit, %15
  ret void
}